target datalayout = "e-m:e-p270:32:32-p271:32:32-p272:64:64-i64:64-i128:128-f80:128-n8:16:32:64-S128"
target triple = "x86_64-pc-linux-gnu"

%struct._object = type { %union.anon, ptr }
%union.anon = type { i64 }
%struct._typeobject = type { %struct.PyVarObject, ptr, i64, i64, ptr, i64, ptr, ptr, ptr, ptr, ptr, ptr, ptr, ptr, ptr, ptr, ptr, ptr, ptr, i64, ptr, ptr, ptr, ptr, i64, ptr, ptr, ptr, ptr, ptr, ptr, ptr, ptr, ptr, i64, ptr, ptr, ptr, ptr, ptr, ptr, ptr, ptr, ptr, ptr, ptr, i32, ptr, ptr, i8, i16 }
%struct.PyVarObject = type { %struct._object, i64 }

@.str.32 = private unnamed_addr constant [40 x i8] c"../cpython/Modules/_testcapi/watchers.c\00", align 1
@num_code_object_destroyed_events = internal global [2 x i32] zeroinitializer, align 4
@.str.51 = private unnamed_addr constant [25 x i8] c"PyLong_Check(watcher_id)\00", align 1
@.str.52 = private unnamed_addr constant [54 x i8] c"watcher_id_l >= 0 && watcher_id_l < NUM_CODE_WATCHERS\00", align 1
@__PRETTY_FUNCTION__.get_code_watcher_num_destroyed_events = private unnamed_addr constant [72 x i8] c"PyObject *get_code_watcher_num_destroyed_events(PyObject *, PyObject *)\00", align 1

; Function Attrs: inlinehint nounwind uwtable
define internal i32 @PyType_HasFeature(ptr noundef %0, i64 noundef %1) #3 {
  %3 = alloca ptr, align 8
  %4 = alloca i64, align 8
  %5 = alloca i64, align 8
  store ptr %0, ptr %3, align 8, !tbaa !43
  store i64 %1, ptr %4, align 8, !tbaa !12
  call void @llvm.lifetime.start.p0(i64 8, ptr %5) #6
  %6 = load ptr, ptr %3, align 8, !tbaa !43
  %7 = getelementptr inbounds nuw %struct._typeobject, ptr %6, i32 0, i32 19
  %8 = load i64, ptr %7, align 8, !tbaa !44
  store i64 %8, ptr %5, align 8, !tbaa !12
  %9 = load i64, ptr %5, align 8, !tbaa !12
  %10 = load i64, ptr %4, align 8, !tbaa !12
  %11 = and i64 %9, %10
  %12 = icmp ne i64 %11, 0
  %13 = zext i1 %12 to i32
  call void @llvm.lifetime.end.p0(i64 8, ptr %5) #6
  ret i32 %13
}

; Function Attrs: inlinehint nounwind uwtable
define internal ptr @_Py_TYPE(ptr noundef %0) #3 {
  %2 = alloca ptr, align 8
  store ptr %0, ptr %2, align 8, !tbaa !3
  %3 = load ptr, ptr %2, align 8, !tbaa !3
  %4 = getelementptr inbounds nuw %struct._object, ptr %3, i32 0, i32 1
  %5 = load ptr, ptr %4, align 8, !tbaa !51
  ret ptr %5
}

; Function Attrs: nounwind uwtable
define internal ptr @get_code_watcher_num_destroyed_events(ptr noundef %0, ptr noundef %1) #0 {
  %3 = alloca ptr, align 8
  %4 = alloca ptr, align 8
  %5 = alloca i64, align 8
  store ptr %0, ptr %3, align 8, !tbaa !3
  store ptr %1, ptr %4, align 8, !tbaa !3
  %6 = load ptr, ptr %4, align 8, !tbaa !3
  %7 = call ptr @_Py_TYPE(ptr noundef %6)
  %8 = call i32 @PyType_HasFeature(ptr noundef %7, i64 noundef 16777216)
  %9 = icmp ne i32 %8, 0
  br i1 %9, label %10, label %11

10:                                               ; preds = %2
  br label %13

11:                                               ; preds = %2
  call void @__assert_fail(ptr noundef @.str.51, ptr noundef @.str.32, i32 noundef 409, ptr noundef @__PRETTY_FUNCTION__.get_code_watcher_num_destroyed_events) #7
  unreachable

12:                                               ; No predecessors!
  br label %13

13:                                               ; preds = %12, %10
  call void @llvm.lifetime.start.p0(i64 8, ptr %5) #6
  %14 = load ptr, ptr %4, align 8, !tbaa !3
  %15 = call i64 @PyLong_AsLong(ptr noundef %14)
  store i64 %15, ptr %5, align 8, !tbaa !12
  %16 = load i64, ptr %5, align 8, !tbaa !12
  %17 = icmp sge i64 %16, 0
  br i1 %17, label %18, label %22

18:                                               ; preds = %13
  %19 = load i64, ptr %5, align 8, !tbaa !12
  %20 = icmp slt i64 %19, 2
  br i1 %20, label %21, label %22

21:                                               ; preds = %18
  br label %24

22:                                               ; preds = %18, %13
  call void @__assert_fail(ptr noundef @.str.52, ptr noundef @.str.32, i32 noundef 411, ptr noundef @__PRETTY_FUNCTION__.get_code_watcher_num_destroyed_events) #7
  unreachable

23:                                               ; No predecessors!
  br label %24

24:                                               ; preds = %23, %21
  %25 = load i64, ptr %5, align 8, !tbaa !12
  %26 = getelementptr [2 x i32], ptr @num_code_object_destroyed_events, i64 0, i64 %25
  %27 = load i32, ptr %26, align 4, !tbaa !10
  %28 = sext i32 %27 to i64
  %29 = call ptr @PyLong_FromLong(i64 noundef %28)
  call void @llvm.lifetime.end.p0(i64 8, ptr %5) #6
  ret ptr %29
}