; Function Attrs: nounwind uwtable
define internal ptr @get_code_watcher_num_destroyed_events(ptr readnone captures(none) %0, ptr noundef %1) #0 {
  %3 = getelementptr i8, ptr %1, i64 8
  %.val = load ptr, ptr %3, align 8, !tbaa !3
  %4 = getelementptr i8, ptr %.val, i64 168
  %.val5 = load i64, ptr %4, align 8, !tbaa !9
  %5 = and i64 %.val5, 16777216
  %.not = icmp eq i64 %5, 0
  br i1 %.not, label %6, label %7

6:                                                ; preds = %2
  tail call void @__assert_fail(ptr noundef nonnull @.str.51, ptr noundef nonnull @.str.32, i32 noundef 409, ptr noundef nonnull @__PRETTY_FUNCTION__.get_code_watcher_num_destroyed_events) #7
  unreachable

7:                                                ; preds = %2
  %8 = tail call i64 @PyLong_AsLong(ptr noundef nonnull %1) #6
  %or.cond = icmp ult i64 %8, 2
  br i1 %or.cond, label %10, label %9

9:                                                ; preds = %7
  tail call void @__assert_fail(ptr noundef nonnull @.str.52, ptr noundef nonnull @.str.32, i32 noundef 411, ptr noundef nonnull @__PRETTY_FUNCTION__.get_code_watcher_num_destroyed_events) #7
  unreachable

10:                                               ; preds = %7
  %11 = getelementptr [2 x i32], ptr @num_code_object_destroyed_events, i64 0, i64 %8
  %12 = load i32, ptr %11, align 4, !tbaa !20
  %13 = sext i32 %12 to i64
  %14 = tail call ptr @PyLong_FromLong(i64 noundef %13) #6
  ret ptr %14
}